target datalayout = "e-m:e-p270:32:32-p271:32:32-p272:64:64-i64:64-i128:128-f80:128-n8:16:32:64-S128"
target triple = "x86_64-pc-linux-gnu"

%struct.AVFormatContext = type { ptr, ptr, ptr, ptr, ptr, i32, i32, ptr, i32, ptr, i32, ptr, ptr, i64, i64, i64, i32, i32, i32, i64, i64, ptr, i32, i32, ptr, i32, i32, i32, i32, ptr, i64, i32, i32, %struct.AVIOInterruptCB, i32, i32, i32, i32, i64, i32, i32, i32, i32, i32, i32, i32, i32, i32, i32, i32, i32, i64, i32, i32, i32, i32, i32, ptr, ptr, ptr, ptr, i32, ptr, ptr, ptr, ptr, i32, ptr, ptr, i64, ptr, ptr, ptr, i64 }
%struct.AVIOInterruptCB = type { ptr, ptr }
%struct.TeeContext = type { ptr, i32, i32, ptr, i32, ptr }
%struct.TeeSlave = type { ptr, ptr, i32, i32, ptr, ptr, i32 }
%struct.FFFormatContext = type { %struct.AVFormatContext, i32, %struct.PacketList, i64, ptr, ptr, i32, ptr, i32 }
%struct.PacketList = type { ptr, ptr }
%struct.AVPacket = type { ptr, i64, i64, ptr, i32, i32, i32, ptr, i32, i64, i64, ptr, ptr, %struct.AVRational }
%struct.AVRational = type { i32, i32 }
%struct.AVBSFContext = type { ptr, ptr, ptr, ptr, ptr, %struct.AVRational, %struct.AVRational }
%struct.AVStream = type { ptr, i32, i32, ptr, ptr, %struct.AVRational, i64, i64, i64, i32, i32, %struct.AVRational, ptr, %struct.AVRational, %struct.AVPacket, i32, %struct.AVRational, i32 }

@.str.45 = private unnamed_addr constant [52 x i8] c"Error while sending packet to bitstream filter: %s\0A\00", align 1

; Function Attrs: inlinehint nounwind uwtable
define internal ptr @av_make_error_string(ptr noundef %0, i64 noundef %1, i32 noundef %2) #4 {
  %4 = alloca ptr, align 8
  %5 = alloca i64, align 8
  %6 = alloca i32, align 4
  store ptr %0, ptr %4, align 8, !tbaa !30
  store i64 %1, ptr %5, align 8, !tbaa !120
  store i32 %2, ptr %6, align 4, !tbaa !28
  %7 = load i32, ptr %6, align 4, !tbaa !28
  %8 = load ptr, ptr %4, align 8, !tbaa !30
  %9 = load i64, ptr %5, align 8, !tbaa !120
  %10 = call i32 @av_strerror(i32 noundef %7, ptr noundef %8, i64 noundef %9)
  %11 = load ptr, ptr %4, align 8, !tbaa !30
  ret ptr %11
}

; Function Attrs: alwaysinline nounwind uwtable
define internal ptr @ffformatcontext(ptr noundef %0) #7 {
  %2 = alloca ptr, align 8
  store ptr %0, ptr %2, align 8, !tbaa !4
  %3 = load ptr, ptr %2, align 8, !tbaa !4
  ret ptr %3
}

; Function Attrs: nounwind uwtable
define internal i32 @tee_write_packet(ptr noundef %0, ptr noundef %1) #0 {
  %3 = alloca ptr, align 8
  %4 = alloca ptr, align 8
  %5 = alloca ptr, align 8
  %6 = alloca ptr, align 8
  %7 = alloca i32, align 4
  %8 = alloca i32, align 4
  %9 = alloca i32, align 4
  %10 = alloca i32, align 4
  %11 = alloca i32, align 4
  %12 = alloca i32, align 4
  %13 = alloca ptr, align 8
  %14 = alloca ptr, align 8
  %15 = alloca [64 x i8], align 1
  store ptr %0, ptr %3, align 8, !tbaa !4
  store ptr %1, ptr %4, align 8, !tbaa !53
  call void @llvm.lifetime.start.p0(i64 8, ptr %5) #8
  %16 = load ptr, ptr %3, align 8, !tbaa !4
  %17 = getelementptr inbounds nuw %struct.AVFormatContext, ptr %16, i32 0, i32 3
  %18 = load ptr, ptr %17, align 8, !tbaa !9
  store ptr %18, ptr %5, align 8, !tbaa !26
  call void @llvm.lifetime.start.p0(i64 8, ptr %6) #8
  %19 = load ptr, ptr %3, align 8, !tbaa !4
  %20 = call ptr @ffformatcontext(ptr noundef %19)
  %21 = getelementptr inbounds nuw %struct.FFFormatContext, ptr %20, i32 0, i32 5
  %22 = load ptr, ptr %21, align 8, !tbaa !55
  store ptr %22, ptr %6, align 8, !tbaa !53
  call void @llvm.lifetime.start.p0(i64 4, ptr %7) #8
  store i32 0, ptr %7, align 4, !tbaa !28
  call void @llvm.lifetime.start.p0(i64 4, ptr %8) #8
  call void @llvm.lifetime.start.p0(i64 4, ptr %9) #8
  call void @llvm.lifetime.start.p0(i64 4, ptr %10) #8
  call void @llvm.lifetime.start.p0(i64 4, ptr %11) #8
  store i32 0, ptr %11, align 4, !tbaa !28
  br label %23

23:                                               ; preds = %188, %2
  %24 = load i32, ptr %11, align 4, !tbaa !28
  %25 = load ptr, ptr %5, align 8, !tbaa !26
  %26 = getelementptr inbounds nuw %struct.TeeContext, ptr %25, i32 0, i32 1
  %27 = load i32, ptr %26, align 8, !tbaa !39
  %28 = icmp ult i32 %24, %27
  br i1 %28, label %30, label %29

29:                                               ; preds = %23
  store i32 2, ptr %12, align 4
  call void @llvm.lifetime.end.p0(i64 4, ptr %11) #8
  br label %191

30:                                               ; preds = %23
  call void @llvm.lifetime.start.p0(i64 8, ptr %13) #8
  %31 = load ptr, ptr %5, align 8, !tbaa !26
  %32 = getelementptr inbounds nuw %struct.TeeContext, ptr %31, i32 0, i32 3
  %33 = load ptr, ptr %32, align 8, !tbaa !36
  %34 = load i32, ptr %11, align 4, !tbaa !28
  %35 = zext i32 %34 to i64
  %36 = getelementptr inbounds nuw %struct.TeeSlave, ptr %33, i64 %35
  %37 = getelementptr inbounds nuw %struct.TeeSlave, ptr %36, i32 0, i32 0
  %38 = load ptr, ptr %37, align 8, !tbaa !48
  store ptr %38, ptr %13, align 8, !tbaa !4
  call void @llvm.lifetime.start.p0(i64 8, ptr %14) #8
  %39 = load ptr, ptr %13, align 8, !tbaa !4
  %40 = icmp ne ptr %39, null
  br i1 %40, label %42, label %41

41:                                               ; preds = %30
  store i32 4, ptr %12, align 4
  br label %185

42:                                               ; preds = %30
  %43 = load ptr, ptr %4, align 8, !tbaa !53
  %44 = icmp ne ptr %43, null
  br i1 %44, label %64, label %45

45:                                               ; preds = %42
  %46 = load ptr, ptr %13, align 8, !tbaa !4
  %47 = call i32 @av_interleaved_write_frame(ptr noundef %46, ptr noundef null)
  store i32 %47, ptr %8, align 4, !tbaa !28
  %48 = load i32, ptr %8, align 4, !tbaa !28
  %49 = icmp slt i32 %48, 0
  br i1 %49, label %50, label %63

50:                                               ; preds = %45
  %51 = load ptr, ptr %3, align 8, !tbaa !4
  %52 = load i32, ptr %11, align 4, !tbaa !28
  %53 = load i32, ptr %8, align 4, !tbaa !28
  %54 = call i32 @tee_process_slave_failure(ptr noundef %51, i32 noundef %52, i32 noundef %53)
  store i32 %54, ptr %8, align 4, !tbaa !28
  %55 = load i32, ptr %7, align 4, !tbaa !28
  %56 = icmp ne i32 %55, 0
  br i1 %56, label %62, label %57

57:                                               ; preds = %50
  %58 = load i32, ptr %8, align 4, !tbaa !28
  %59 = icmp slt i32 %58, 0
  br i1 %59, label %60, label %62

60:                                               ; preds = %57
  %61 = load i32, ptr %8, align 4, !tbaa !28
  store i32 %61, ptr %7, align 4, !tbaa !28
  br label %62

62:                                               ; preds = %60, %57, %50
  br label %63

63:                                               ; preds = %62, %45
  store i32 4, ptr %12, align 4
  br label %185

64:                                               ; preds = %42
  %65 = load ptr, ptr %4, align 8, !tbaa !53
  %66 = getelementptr inbounds nuw %struct.AVPacket, ptr %65, i32 0, i32 5
  %67 = load i32, ptr %66, align 4, !tbaa !59
  store i32 %67, ptr %9, align 4, !tbaa !28
  %68 = load ptr, ptr %5, align 8, !tbaa !26
  %69 = getelementptr inbounds nuw %struct.TeeContext, ptr %68, i32 0, i32 3
  %70 = load ptr, ptr %69, align 8, !tbaa !36
  %71 = load i32, ptr %11, align 4, !tbaa !28
  %72 = zext i32 %71 to i64
  %73 = getelementptr inbounds nuw %struct.TeeSlave, ptr %70, i64 %72
  %74 = getelementptr inbounds nuw %struct.TeeSlave, ptr %73, i32 0, i32 5
  %75 = load ptr, ptr %74, align 8, !tbaa !49
  %76 = load i32, ptr %9, align 4, !tbaa !28
  %77 = zext i32 %76 to i64
  %78 = getelementptr inbounds nuw i32, ptr %75, i64 %77
  %79 = load i32, ptr %78, align 4, !tbaa !28
  store i32 %79, ptr %10, align 4, !tbaa !28
  %80 = load i32, ptr %10, align 4, !tbaa !28
  %81 = icmp slt i32 %80, 0
  br i1 %81, label %82, label %83

82:                                               ; preds = %64
  store i32 4, ptr %12, align 4
  br label %185

83:                                               ; preds = %64
  %84 = load ptr, ptr %6, align 8, !tbaa !53
  %85 = load ptr, ptr %4, align 8, !tbaa !53
  %86 = call i32 @av_packet_ref(ptr noundef %84, ptr noundef %85)
  store i32 %86, ptr %8, align 4, !tbaa !28
  %87 = icmp slt i32 %86, 0
  br i1 %87, label %88, label %94

88:                                               ; preds = %83
  %89 = load i32, ptr %7, align 4, !tbaa !28
  %90 = icmp ne i32 %89, 0
  br i1 %90, label %93, label %91

91:                                               ; preds = %88
  %92 = load i32, ptr %8, align 4, !tbaa !28
  store i32 %92, ptr %7, align 4, !tbaa !28
  br label %93

93:                                               ; preds = %91, %88
  store i32 4, ptr %12, align 4
  br label %185

94:                                               ; preds = %83
  %95 = load ptr, ptr %5, align 8, !tbaa !26
  %96 = getelementptr inbounds nuw %struct.TeeContext, ptr %95, i32 0, i32 3
  %97 = load ptr, ptr %96, align 8, !tbaa !36
  %98 = load i32, ptr %11, align 4, !tbaa !28
  %99 = zext i32 %98 to i64
  %100 = getelementptr inbounds nuw %struct.TeeSlave, ptr %97, i64 %99
  %101 = getelementptr inbounds nuw %struct.TeeSlave, ptr %100, i32 0, i32 1
  %102 = load ptr, ptr %101, align 8, !tbaa !64
  %103 = load i32, ptr %10, align 4, !tbaa !28
  %104 = sext i32 %103 to i64
  %105 = getelementptr inbounds ptr, ptr %102, i64 %104
  %106 = load ptr, ptr %105, align 8, !tbaa !65
  store ptr %106, ptr %14, align 8, !tbaa !65
  %107 = load i32, ptr %10, align 4, !tbaa !28
  %108 = load ptr, ptr %6, align 8, !tbaa !53
  %109 = getelementptr inbounds nuw %struct.AVPacket, ptr %108, i32 0, i32 5
  store i32 %107, ptr %109, align 4, !tbaa !59
  %110 = load ptr, ptr %14, align 8, !tbaa !65
  %111 = load ptr, ptr %6, align 8, !tbaa !53
  %112 = call i32 @av_bsf_send_packet(ptr noundef %110, ptr noundef %111)
  store i32 %112, ptr %8, align 4, !tbaa !28
  %113 = load i32, ptr %8, align 4, !tbaa !28
  %114 = icmp slt i32 %113, 0
  br i1 %114, label %115, label %133

115:                                              ; preds = %94
  %116 = load ptr, ptr %6, align 8, !tbaa !53
  call void @av_packet_unref(ptr noundef %116)
  %117 = load ptr, ptr %3, align 8, !tbaa !4
  call void @llvm.memset.p0.i64(ptr align 1 %15, i8 0, i64 64, i1 false)
  %118 = getelementptr inbounds [64 x i8], ptr %15, i64 0, i64 0
  %119 = load i32, ptr %8, align 4, !tbaa !28
  %120 = call ptr @av_make_error_string(ptr noundef %118, i64 noundef 64, i32 noundef %119)
  call void (ptr, i32, ptr, ...) @av_log(ptr noundef %117, i32 noundef 16, ptr noundef @.str.45, ptr noundef %120)
  %121 = load ptr, ptr %3, align 8, !tbaa !4
  %122 = load i32, ptr %11, align 4, !tbaa !28
  %123 = load i32, ptr %8, align 4, !tbaa !28
  %124 = call i32 @tee_process_slave_failure(ptr noundef %121, i32 noundef %122, i32 noundef %123)
  store i32 %124, ptr %8, align 4, !tbaa !28
  %125 = load i32, ptr %7, align 4, !tbaa !28
  %126 = icmp ne i32 %125, 0
  br i1 %126, label %132, label %127

127:                                              ; preds = %115
  %128 = load i32, ptr %8, align 4, !tbaa !28
  %129 = icmp slt i32 %128, 0
  br i1 %129, label %130, label %132

130:                                              ; preds = %127
  %131 = load i32, ptr %8, align 4, !tbaa !28
  store i32 %131, ptr %7, align 4, !tbaa !28
  br label %132

132:                                              ; preds = %130, %127, %115
  br label %133

133:                                              ; preds = %132, %94
  br label %134

134:                                              ; preds = %167, %133
  br label %135

135:                                              ; preds = %134
  %136 = load ptr, ptr %14, align 8, !tbaa !65
  %137 = load ptr, ptr %6, align 8, !tbaa !53
  %138 = call i32 @av_bsf_receive_packet(ptr noundef %136, ptr noundef %137)
  store i32 %138, ptr %8, align 4, !tbaa !28
  %139 = load i32, ptr %8, align 4, !tbaa !28
  %140 = icmp eq i32 %139, -11
  br i1 %140, label %141, label %142

141:                                              ; preds = %135
  store i32 0, ptr %8, align 4, !tbaa !28
  br label %168

142:                                              ; preds = %135
  %143 = load i32, ptr %8, align 4, !tbaa !28
  %144 = icmp slt i32 %143, 0
  br i1 %144, label %145, label %146

145:                                              ; preds = %142
  br label %168

146:                                              ; preds = %142
  br label %147

147:                                              ; preds = %146
  %148 = load ptr, ptr %6, align 8, !tbaa !53
  %149 = load ptr, ptr %14, align 8, !tbaa !65
  %150 = getelementptr inbounds nuw %struct.AVBSFContext, ptr %149, i32 0, i32 6
  %151 = load ptr, ptr %13, align 8, !tbaa !4
  %152 = getelementptr inbounds nuw %struct.AVFormatContext, ptr %151, i32 0, i32 7
  %153 = load ptr, ptr %152, align 8, !tbaa !67
  %154 = load i32, ptr %10, align 4, !tbaa !28
  %155 = sext i32 %154 to i64
  %156 = getelementptr inbounds ptr, ptr %153, i64 %155
  %157 = load ptr, ptr %156, align 8, !tbaa !68
  %158 = getelementptr inbounds nuw %struct.AVStream, ptr %157, i32 0, i32 5
  %159 = load i64, ptr %150, align 8
  %160 = load i64, ptr %158, align 8
  call void @av_packet_rescale_ts(ptr noundef %148, i64 %159, i64 %160)
  %161 = load ptr, ptr %13, align 8, !tbaa !4
  %162 = load ptr, ptr %6, align 8, !tbaa !53
  %163 = call i32 @av_interleaved_write_frame(ptr noundef %161, ptr noundef %162)
  store i32 %163, ptr %8, align 4, !tbaa !28
  %164 = load i32, ptr %8, align 4, !tbaa !28
  %165 = icmp slt i32 %164, 0
  br i1 %165, label %166, label %167

166:                                              ; preds = %147
  br label %168

167:                                              ; preds = %147
  br label %134

168:                                              ; preds = %166, %145, %141
  %169 = load i32, ptr %8, align 4, !tbaa !28
  %170 = icmp slt i32 %169, 0
  br i1 %170, label %171, label %184

171:                                              ; preds = %168
  %172 = load ptr, ptr %3, align 8, !tbaa !4
  %173 = load i32, ptr %11, align 4, !tbaa !28
  %174 = load i32, ptr %8, align 4, !tbaa !28
  %175 = call i32 @tee_process_slave_failure(ptr noundef %172, i32 noundef %173, i32 noundef %174)
  store i32 %175, ptr %8, align 4, !tbaa !28
  %176 = load i32, ptr %7, align 4, !tbaa !28
  %177 = icmp ne i32 %176, 0
  br i1 %177, label %183, label %178

178:                                              ; preds = %171
  %179 = load i32, ptr %8, align 4, !tbaa !28
  %180 = icmp slt i32 %179, 0
  br i1 %180, label %181, label %183

181:                                              ; preds = %178
  %182 = load i32, ptr %8, align 4, !tbaa !28
  store i32 %182, ptr %7, align 4, !tbaa !28
  br label %183

183:                                              ; preds = %181, %178, %171
  br label %184

184:                                              ; preds = %183, %168
  store i32 0, ptr %12, align 4
  br label %185

185:                                              ; preds = %184, %93, %82, %63, %41
  call void @llvm.lifetime.end.p0(i64 8, ptr %14) #8
  call void @llvm.lifetime.end.p0(i64 8, ptr %13) #8
  %186 = load i32, ptr %12, align 4
  switch i32 %186, label %193 [
    i32 0, label %187
    i32 4, label %188
  ]

187:                                              ; preds = %185
  br label %188

188:                                              ; preds = %187, %185
  %189 = load i32, ptr %11, align 4, !tbaa !28
  %190 = add i32 %189, 1
  store i32 %190, ptr %11, align 4, !tbaa !28
  br label %23, !llvm.loop !70

191:                                              ; preds = %29
  %192 = load i32, ptr %7, align 4, !tbaa !28
  store i32 1, ptr %12, align 4
  call void @llvm.lifetime.end.p0(i64 4, ptr %10) #8
  call void @llvm.lifetime.end.p0(i64 4, ptr %9) #8
  call void @llvm.lifetime.end.p0(i64 4, ptr %8) #8
  call void @llvm.lifetime.end.p0(i64 4, ptr %7) #8
  call void @llvm.lifetime.end.p0(i64 8, ptr %6) #8
  call void @llvm.lifetime.end.p0(i64 8, ptr %5) #8
  ret i32 %192

193:                                              ; preds = %185
  unreachable
}