; Function Attrs: nounwind uwtable
define internal i32 @tee_write_packet(ptr noundef %0, ptr noundef %1) #0 {
  %3 = alloca [64 x i8], align 1
  %4 = getelementptr inbounds nuw i8, ptr %0, i64 24
  %5 = load ptr, ptr %4, align 8, !tbaa !4
  %6 = getelementptr inbounds nuw i8, ptr %0, i64 512
  %7 = load ptr, ptr %6, align 8, !tbaa !104
  %8 = getelementptr inbounds nuw i8, ptr %5, i64 8
  %9 = load i32, ptr %8, align 8, !tbaa !33
  %.not88 = icmp eq i32 %9, 0
  br i1 %.not88, label %._crit_edge, label %.lr.ph

.lr.ph:                                           ; preds = %2
  %10 = getelementptr inbounds nuw i8, ptr %5, i64 16
  %.not79 = icmp eq ptr %1, null
  %11 = getelementptr inbounds nuw i8, ptr %1, i64 36
  %12 = getelementptr inbounds nuw i8, ptr %7, i64 36
  br i1 %.not79, label %.lr.ph.split.us, label %.lr.ph.split

.lr.ph.split.us:                                  ; preds = %.lr.ph, %24
  %indvars.iv91 = phi i64 [ %indvars.iv.next92, %24 ], [ 0, %.lr.ph ]
  %.087.us = phi i32 [ %.1.us, %24 ], [ 0, %.lr.ph ]
  %13 = load ptr, ptr %10, align 8, !tbaa !30
  %14 = getelementptr inbounds nuw %struct.TeeSlave, ptr %13, i64 %indvars.iv91
  %15 = load ptr, ptr %14, align 8, !tbaa !51
  %.not.us = icmp eq ptr %15, null
  br i1 %.not.us, label %24, label %16

16:                                               ; preds = %.lr.ph.split.us
  %17 = tail call i32 @av_interleaved_write_frame(ptr noundef nonnull %15, ptr noundef null) #6
  %18 = icmp slt i32 %17, 0
  br i1 %18, label %19, label %24

19:                                               ; preds = %16
  %20 = trunc nuw i64 %indvars.iv91 to i32
  %21 = tail call fastcc i32 @tee_process_slave_failure(ptr noundef %0, i32 noundef %20, i32 noundef %17)
  %22 = icmp eq i32 %.087.us, 0
  %23 = icmp slt i32 %21, 0
  %or.cond.us = select i1 %22, i1 %23, i1 false
  %spec.select.us = select i1 %or.cond.us, i32 %21, i32 %.087.us
  br label %24

24:                                               ; preds = %19, %16, %.lr.ph.split.us
  %.1.us = phi i32 [ %.087.us, %.lr.ph.split.us ], [ %.087.us, %16 ], [ %spec.select.us, %19 ]
  %indvars.iv.next92 = add nuw nsw i64 %indvars.iv91, 1
  %25 = load i32, ptr %8, align 8, !tbaa !33
  %26 = zext i32 %25 to i64
  %27 = icmp samesign ult i64 %indvars.iv.next92, %26
  br i1 %27, label %.lr.ph.split.us, label %._crit_edge, !llvm.loop !109

._crit_edge:                                      ; preds = %.loopexit, %24, %2
  %.0.lcssa = phi i32 [ 0, %2 ], [ %.1.us, %24 ], [ %.1, %.loopexit ]
  ret i32 %.0.lcssa

.lr.ph.split:                                     ; preds = %.lr.ph, %.loopexit
  %indvars.iv = phi i64 [ %indvars.iv.next, %.loopexit ], [ 0, %.lr.ph ]
  %.087 = phi i32 [ %.1, %.loopexit ], [ 0, %.lr.ph ]
  %28 = load ptr, ptr %10, align 8, !tbaa !30
  %29 = getelementptr inbounds nuw %struct.TeeSlave, ptr %28, i64 %indvars.iv
  %30 = load ptr, ptr %29, align 8, !tbaa !51
  %.not = icmp eq ptr %30, null
  br i1 %.not, label %.loopexit, label %31

31:                                               ; preds = %.lr.ph.split
  %32 = load i32, ptr %11, align 4, !tbaa !110
  %33 = getelementptr inbounds nuw i8, ptr %29, i64 32
  %34 = load ptr, ptr %33, align 8, !tbaa !60
  %35 = zext i32 %32 to i64
  %36 = getelementptr inbounds nuw i32, ptr %34, i64 %35
  %37 = load i32, ptr %36, align 4, !tbaa !24
  %38 = icmp slt i32 %37, 0
  br i1 %38, label %.loopexit, label %39

39:                                               ; preds = %31
  %40 = call i32 @av_packet_ref(ptr noundef %7, ptr noundef nonnull %1) #6
  %41 = icmp slt i32 %40, 0
  br i1 %41, label %42, label %43

42:                                               ; preds = %39
  %.not80 = icmp eq i32 %.087, 0
  %spec.select81 = select i1 %.not80, i32 %40, i32 %.087
  br label %.loopexit

43:                                               ; preds = %39
  %44 = load ptr, ptr %10, align 8, !tbaa !30
  %45 = getelementptr inbounds nuw %struct.TeeSlave, ptr %44, i64 %indvars.iv, i32 1
  %46 = load ptr, ptr %45, align 8, !tbaa !67
  %47 = zext nneg i32 %37 to i64
  %48 = getelementptr inbounds nuw ptr, ptr %46, i64 %47
  %49 = load ptr, ptr %48, align 8, !tbaa !68
  store i32 %37, ptr %12, align 4, !tbaa !110
  %50 = call i32 @av_bsf_send_packet(ptr noundef %49, ptr noundef %7) #6
  %51 = icmp slt i32 %50, 0
  br i1 %51, label %52, label %58

52:                                               ; preds = %43
  call void @av_packet_unref(ptr noundef nonnull %7) #6
  call void @llvm.memset.p0.i64(ptr noundef nonnull align 1 dereferenceable(64) %3, i8 0, i64 64, i1 false)
  %53 = call i32 @av_strerror(i32 noundef range(i32 -2147483648, 0) %50, ptr noundef nonnull %3, i64 noundef 64) #6
  call void (ptr, i32, ptr, ...) @av_log(ptr noundef %0, i32 noundef 16, ptr noundef nonnull @.str.45, ptr noundef nonnull %3) #6
  %54 = trunc nuw i64 %indvars.iv to i32
  %55 = call fastcc i32 @tee_process_slave_failure(ptr noundef %0, i32 noundef %54, i32 noundef %50)
  %56 = icmp eq i32 %.087, 0
  %57 = icmp slt i32 %55, 0
  %or.cond3 = select i1 %56, i1 %57, i1 false
  %spec.select82 = select i1 %or.cond3, i32 %55, i32 %.087
  br label %58

58:                                               ; preds = %52, %43
  %.4 = phi i32 [ %.087, %43 ], [ %spec.select82, %52 ]
  %59 = getelementptr inbounds nuw i8, ptr %49, i64 48
  %60 = getelementptr inbounds nuw i8, ptr %30, i64 48
  br label %61

61:                                               ; preds = %66, %58
  %62 = call i32 @av_bsf_receive_packet(ptr noundef %49, ptr noundef %7) #6
  %63 = icmp eq i32 %62, -11
  br i1 %63, label %.loopexit, label %64

64:                                               ; preds = %61
  %65 = icmp slt i32 %62, 0
  br i1 %65, label %75, label %66

66:                                               ; preds = %64
  %67 = load ptr, ptr %60, align 8, !tbaa !61
  %68 = getelementptr inbounds nuw ptr, ptr %67, i64 %47
  %69 = load ptr, ptr %68, align 8, !tbaa !62
  %70 = getelementptr inbounds nuw i8, ptr %69, i64 32
  %71 = load i64, ptr %59, align 8
  %72 = load i64, ptr %70, align 8
  call void @av_packet_rescale_ts(ptr noundef %7, i64 %71, i64 %72) #6
  %73 = call i32 @av_interleaved_write_frame(ptr noundef nonnull %30, ptr noundef %7) #6
  %74 = icmp slt i32 %73, 0
  br i1 %74, label %75, label %61

75:                                               ; preds = %64, %66
  %.066.ph = phi i32 [ %73, %66 ], [ %62, %64 ]
  %76 = trunc nuw i64 %indvars.iv to i32
  %77 = call fastcc i32 @tee_process_slave_failure(ptr noundef %0, i32 noundef %76, i32 noundef %.066.ph)
  %78 = icmp eq i32 %.4, 0
  %79 = icmp slt i32 %77, 0
  %or.cond5 = select i1 %78, i1 %79, i1 false
  %spec.select83 = select i1 %or.cond5, i32 %77, i32 %.4
  br label %.loopexit

.loopexit:                                        ; preds = %61, %75, %31, %.lr.ph.split, %42
  %.1 = phi i32 [ %spec.select81, %42 ], [ %.087, %.lr.ph.split ], [ %.087, %31 ], [ %spec.select83, %75 ], [ %.4, %61 ]
  %indvars.iv.next = add nuw nsw i64 %indvars.iv, 1
  %80 = load i32, ptr %8, align 8, !tbaa !33
  %81 = zext i32 %80 to i64
  %82 = icmp samesign ult i64 %indvars.iv.next, %81
  br i1 %82, label %.lr.ph.split, label %._crit_edge, !llvm.loop !109
}